; ModuleID = 'bench/ffmpeg/original/rtpdec_dv.ll'
source_filename = "bench/ffmpeg/original/rtpdec_dv.ll"
target datalayout = "e-m:e-p270:32:32-p271:32:32-p272:64:64-i64:64-i128:128-f80:128-n8:16:32:64-S128"
target triple = "x86_64-pc-linux-gnu"

@.str = private unnamed_addr constant [3 x i8] c"DV\00", align 1
@ff_dv_dynamic_handler = local_unnamed_addr constant { ptr, i32, i32, i32, i32, i32, [4 x i8], ptr, ptr, ptr, ptr, ptr } { ptr @.str, i32 0, i32 24, i32 1, i32 0, i32 16, [4 x i8] zeroinitializer, ptr null, ptr @dv_parse_sdp_line, ptr @dv_close_context, ptr @dv_handle_packet, ptr null }, align 8
@.str.1 = private unnamed_addr constant [6 x i8] c"fmtp:\00", align 1
@.str.2 = private unnamed_addr constant [6 x i8] c"audio\00", align 1
@.str.3 = private unnamed_addr constant [8 x i8] c"bundled\00", align 1
@.str.5 = private unnamed_addr constant [39 x i8] c"Too short RTP/DV packet, got %d bytes\0A\00", align 1

; Function Attrs: cold nounwind optsize uwtable
define internal i32 @dv_parse_sdp_line(ptr noundef %0, i32 noundef %1, ptr noundef %2, ptr noundef %3) #0 {
  %5 = alloca ptr, align 8
  call void @llvm.lifetime.start.p0(i64 8, ptr nonnull %5) #7
  store ptr %3, ptr %5, align 8, !tbaa !4
  %6 = icmp slt i32 %1, 0
  br i1 %6, label %17, label %7

7:                                                ; preds = %4
  %8 = getelementptr inbounds nuw i8, ptr %0, i64 48
  %9 = load ptr, ptr %8, align 8, !tbaa !9
  %10 = zext nneg i32 %1 to i64
  %11 = getelementptr inbounds nuw ptr, ptr %9, i64 %10
  %12 = load ptr, ptr %11, align 8, !tbaa !25
  %13 = call i32 @av_strstart(ptr noundef %3, ptr noundef nonnull @.str.1, ptr noundef nonnull %5) #7
  %.not = icmp eq i32 %13, 0
  br i1 %.not, label %17, label %14

14:                                               ; preds = %7
  %15 = load ptr, ptr %5, align 8, !tbaa !4
  %16 = call i32 @ff_parse_fmtp(ptr noundef nonnull %0, ptr noundef %12, ptr noundef %2, ptr noundef %15, ptr noundef nonnull @dv_sdp_parse_fmtp_config) #7
  br label %17

17:                                               ; preds = %7, %4, %14
  %.0 = phi i32 [ %16, %14 ], [ 0, %4 ], [ 0, %7 ]
  call void @llvm.lifetime.end.p0(i64 8, ptr nonnull %5) #7
  ret i32 %.0
}

; Function Attrs: cold nounwind optsize uwtable
define internal void @dv_close_context(ptr noundef %0) #0 {
  tail call void @ffio_free_dyn_buf(ptr noundef %0) #7
  ret void
}

; Function Attrs: nounwind uwtable
define internal range(i32 -2147483648, 1) i32 @dv_handle_packet(ptr noundef %0, ptr noundef %1, ptr noundef readonly captures(none) %2, ptr noundef %3, ptr noundef readonly captures(none) %4, ptr noundef %5, i32 noundef %6, i16 zeroext %7, i32 noundef %8) #1 {
  %10 = load ptr, ptr %1, align 8, !tbaa !27
  %.not = icmp eq ptr %10, null
  br i1 %.not, label %16, label %11

11:                                               ; preds = %9
  %12 = getelementptr inbounds nuw i8, ptr %1, i64 8
  %13 = load i32, ptr %12, align 8, !tbaa !29
  %14 = load i32, ptr %4, align 4, !tbaa !30
  %.not25 = icmp eq i32 %13, %14
  br i1 %.not25, label %16, label %15

15:                                               ; preds = %11
  tail call void @ffio_free_dyn_buf(ptr noundef nonnull %1) #7
  br label %16

16:                                               ; preds = %15, %11, %9
  %17 = icmp slt i32 %6, 1
  br i1 %17, label %18, label %19

18:                                               ; preds = %16
  tail call void (ptr, i32, ptr, ...) @av_log(ptr noundef %0, i32 noundef 16, ptr noundef nonnull @.str.5, i32 noundef %6) #7
  br label %34

19:                                               ; preds = %16
  %20 = load ptr, ptr %1, align 8, !tbaa !27
  %.not26 = icmp eq ptr %20, null
  br i1 %.not26, label %21, label %27

21:                                               ; preds = %19
  %22 = tail call i32 @avio_open_dyn_buf(ptr noundef nonnull %1) #7
  %23 = icmp slt i32 %22, 0
  br i1 %23, label %34, label %24

24:                                               ; preds = %21
  %25 = load i32, ptr %4, align 4, !tbaa !30
  %26 = getelementptr inbounds nuw i8, ptr %1, i64 8
  store i32 %25, ptr %26, align 8, !tbaa !29
  %.pre = load ptr, ptr %1, align 8, !tbaa !27
  br label %27

27:                                               ; preds = %24, %19
  %28 = phi ptr [ %.pre, %24 ], [ %20, %19 ]
  tail call void @avio_write(ptr noundef %28, ptr noundef %5, i32 noundef %6) #7
  %29 = and i32 %8, 2
  %.not27 = icmp eq i32 %29, 0
  br i1 %.not27, label %34, label %30

30:                                               ; preds = %27
  %31 = getelementptr inbounds nuw i8, ptr %2, i64 8
  %32 = load i32, ptr %31, align 8, !tbaa !31
  %33 = tail call i32 @ff_rtp_finalize_packet(ptr noundef %3, ptr noundef nonnull %1, i32 noundef %32) #7
  %. = tail call i32 @llvm.smin.i32(i32 %33, i32 0)
  br label %34

34:                                               ; preds = %30, %27, %21, %18
  %.0 = phi i32 [ -1094995529, %18 ], [ %22, %21 ], [ -11, %27 ], [ %., %30 ]
  ret i32 %.0
}

; Function Attrs: mustprogress nocallback nofree nosync nounwind willreturn memory(argmem: readwrite)
declare void @llvm.lifetime.start.p0(i64 immarg, ptr captures(none)) #2

declare i32 @av_strstart(ptr noundef, ptr noundef, ptr noundef) local_unnamed_addr #3

declare i32 @ff_parse_fmtp(ptr noundef, ptr noundef, ptr noundef, ptr noundef, ptr noundef) local_unnamed_addr #3

; Function Attrs: cold mustprogress nofree norecurse nounwind optsize willreturn memory(argmem: readwrite) uwtable
define internal noundef i32 @dv_sdp_parse_fmtp_config(ptr readnone captures(none) %0, ptr readnone captures(none) %1, ptr noundef writeonly captures(none) %2, ptr noundef readonly captures(none) %3, ptr noundef readonly captures(none) %4) #4 {
  %6 = tail call i32 @strcmp(ptr noundef nonnull dereferenceable(1) %3, ptr noundef nonnull dereferenceable(6) @.str.2) #8
  %.not = icmp eq i32 %6, 0
  br i1 %.not, label %7, label %11

7:                                                ; preds = %5
  %8 = tail call i32 @strcmp(ptr noundef nonnull dereferenceable(1) %4, ptr noundef nonnull dereferenceable(8) @.str.3) #8
  %.not4 = icmp eq i32 %8, 0
  br i1 %.not4, label %9, label %11

9:                                                ; preds = %7
  %10 = getelementptr inbounds nuw i8, ptr %2, i64 12
  store i32 1, ptr %10, align 4, !tbaa !38
  br label %11

11:                                               ; preds = %9, %7, %5
  ret i32 0
}

; Function Attrs: mustprogress nocallback nofree nosync nounwind willreturn memory(argmem: readwrite)
declare void @llvm.lifetime.end.p0(i64 immarg, ptr captures(none)) #2

; Function Attrs: mustprogress nocallback nofree nounwind willreturn memory(argmem: read)
declare i32 @strcmp(ptr noundef captures(none), ptr noundef captures(none)) local_unnamed_addr #5

declare void @ffio_free_dyn_buf(ptr noundef) local_unnamed_addr #3

declare void @av_log(ptr noundef, i32 noundef, ptr noundef, ...) local_unnamed_addr #3

declare i32 @avio_open_dyn_buf(ptr noundef) local_unnamed_addr #3

declare void @avio_write(ptr noundef, ptr noundef, i32 noundef) local_unnamed_addr #3

declare i32 @ff_rtp_finalize_packet(ptr noundef, ptr noundef, i32 noundef) local_unnamed_addr #3

; Function Attrs: nocallback nofree nosync nounwind speculatable willreturn memory(none)
declare i32 @llvm.smin.i32(i32, i32) #6


!llvm.module.flags = !{!0, !1, !2, !3}

!0 = !{i32 1, !"wchar_size", i32 4}
!1 = !{i32 8, !"PIC Level", i32 2}
!2 = !{i32 7, !"uwtable", i32 2}
!3 = !{i32 1, !"override-stack-alignment", i32 16}
!4 = !{!5, !5, i64 0}
!5 = !{!"p1 omnipotent char", !6, i64 0}
!6 = !{!"any pointer", !7, i64 0}
!7 = !{!"omnipotent char", !8, i64 0}
!8 = !{!"Simple C/C++ TBAA"}
!9 = !{!10, !16, i64 48}
!10 = !{!"AVFormatContext", !11, i64 0, !12, i64 8, !13, i64 16, !6, i64 24, !14, i64 32, !15, i64 40, !15, i64 44, !16, i64 48, !15, i64 56, !18, i64 64, !15, i64 72, !19, i64 80, !5, i64 88, !20, i64 96, !20, i64 104, !20, i64 112, !15, i64 120, !15, i64 124, !15, i64 128, !20, i64 136, !20, i64 144, !5, i64 152, !15, i64 160, !15, i64 164, !21, i64 168, !15, i64 176, !15, i64 180, !15, i64 184, !15, i64 188, !22, i64 192, !20, i64 200, !15, i64 208, !15, i64 212, !23, i64 216, !15, i64 232, !15, i64 236, !15, i64 240, !15, i64 244, !20, i64 248, !15, i64 256, !15, i64 260, !15, i64 264, !15, i64 268, !15, i64 272, !15, i64 276, !15, i64 280, !15, i64 284, !15, i64 288, !15, i64 292, !15, i64 296, !15, i64 300, !20, i64 304, !15, i64 312, !15, i64 316, !15, i64 320, !15, i64 324, !15, i64 328, !5, i64 336, !5, i64 344, !5, i64 352, !5, i64 360, !15, i64 368, !24, i64 376, !24, i64 384, !24, i64 392, !24, i64 400, !15, i64 408, !6, i64 416, !6, i64 424, !20, i64 432, !5, i64 440, !6, i64 448, !6, i64 456, !20, i64 464}
!11 = !{!"p1 _ZTS7AVClass", !6, i64 0}
!12 = !{!"p1 _ZTS13AVInputFormat", !6, i64 0}
!13 = !{!"p1 _ZTS14AVOutputFormat", !6, i64 0}
!14 = !{!"p1 _ZTS11AVIOContext", !6, i64 0}
!15 = !{!"int", !7, i64 0}
!16 = !{!"p2 _ZTS8AVStream", !17, i64 0}
!17 = !{!"any p2 pointer", !6, i64 0}
!18 = !{!"p2 _ZTS13AVStreamGroup", !17, i64 0}
!19 = !{!"p2 _ZTS9AVChapter", !17, i64 0}
!20 = !{!"long", !7, i64 0}
!21 = !{!"p2 _ZTS9AVProgram", !17, i64 0}
!22 = !{!"p1 _ZTS12AVDictionary", !6, i64 0}
!23 = !{!"AVIOInterruptCB", !6, i64 0, !6, i64 8}
!24 = !{!"p1 _ZTS7AVCodec", !6, i64 0}
!25 = !{!26, !26, i64 0}
!26 = !{!"p1 _ZTS8AVStream", !6, i64 0}
!27 = !{!28, !14, i64 0}
!28 = !{!"PayloadContext", !14, i64 0, !15, i64 8, !15, i64 12}
!29 = !{!28, !15, i64 8}
!30 = !{!15, !15, i64 0}
!31 = !{!32, !15, i64 8}
!32 = !{!"AVStream", !11, i64 0, !15, i64 8, !15, i64 12, !33, i64 16, !6, i64 24, !34, i64 32, !20, i64 40, !20, i64 48, !20, i64 56, !15, i64 64, !15, i64 68, !34, i64 72, !22, i64 80, !34, i64 88, !35, i64 96, !15, i64 200, !34, i64 204, !15, i64 212}
!33 = !{!"p1 _ZTS17AVCodecParameters", !6, i64 0}
!34 = !{!"AVRational", !15, i64 0, !15, i64 4}
!35 = !{!"AVPacket", !36, i64 0, !20, i64 8, !20, i64 16, !5, i64 24, !15, i64 32, !15, i64 36, !15, i64 40, !37, i64 48, !15, i64 56, !20, i64 64, !20, i64 72, !6, i64 80, !36, i64 88, !34, i64 96}
!36 = !{!"p1 _ZTS11AVBufferRef", !6, i64 0}
!37 = !{!"p1 _ZTS16AVPacketSideData", !6, i64 0}
!38 = !{!28, !15, i64 12}
